target datalayout = "e-m:e-p270:32:32-p271:32:32-p272:64:64-i64:64-i128:128-f80:128-n8:16:32:64-S128"
target triple = "x86_64-pc-linux-gnu"

%struct._object = type { %union.anon.41, ptr }
%union.anon.41 = type { i64 }
%struct.anon.42 = type { i32, i32 }

@_Py_tss_tstate = external thread_local global ptr, align 8

; Function Attrs: inlinehint nounwind uwtable
define internal ptr @_PyThreadState_GET() #4 {
  %1 = call align 8 ptr @llvm.threadlocal.address.p0(ptr align 8 @_Py_tss_tstate)
  %2 = load ptr, ptr %1, align 8, !tbaa !14
  ret ptr %2
}

; Function Attrs: alwaysinline nounwind uwtable
define internal i32 @_Py_IsImmortal(ptr noundef %0) #3 {
  %2 = alloca ptr, align 8
  store ptr %0, ptr %2, align 8, !tbaa !9
  %3 = load ptr, ptr %2, align 8, !tbaa !9
  %4 = getelementptr inbounds nuw %struct._object, ptr %3, i32 0, i32 0
  %5 = getelementptr inbounds nuw %struct.anon.42, ptr %4, i32 0, i32 0
  %6 = load i32, ptr %5, align 8, !tbaa !20
  %7 = icmp slt i32 %6, 0
  %8 = zext i1 %7 to i32
  ret i32 %8
}

; Function Attrs: nounwind uwtable
define dso_local void @PyErr_PrintEx(i32 noundef %0) #0 {
  %2 = alloca i32, align 4
  %3 = alloca ptr, align 8
  store i32 %0, ptr %2, align 4, !tbaa !11
  call void @llvm.lifetime.start.p0(i64 8, ptr %3) #10
  %4 = call ptr @_PyThreadState_GET()
  store ptr %4, ptr %3, align 8, !tbaa !14
  %5 = load ptr, ptr %3, align 8, !tbaa !14
  %6 = load i32, ptr %2, align 4, !tbaa !11
  call void @_PyErr_PrintEx(ptr noundef %5, i32 noundef %6)
  call void @llvm.lifetime.end.p0(i64 8, ptr %3) #10
  ret void
}

; Function Attrs: alwaysinline nounwind uwtable
define internal void @Py_DECREF(ptr noundef %0) #3 {
  %2 = alloca ptr, align 8
  store ptr %0, ptr %2, align 8, !tbaa !9
  %3 = load ptr, ptr %2, align 8, !tbaa !9
  %4 = call i32 @_Py_IsImmortal(ptr noundef %3)
  %5 = icmp ne i32 %4, 0
  br i1 %5, label %6, label %7

6:                                                ; preds = %1
  br label %16

7:                                                ; preds = %1
  %8 = load ptr, ptr %2, align 8, !tbaa !9
  %9 = getelementptr inbounds nuw %struct._object, ptr %8, i32 0, i32 0
  %10 = getelementptr inbounds nuw %struct.anon.42, ptr %9, i32 0, i32 0
  %11 = load i32, ptr %10, align 8, !tbaa !20
  %12 = add i32 %11, -1
  store i32 %12, ptr %10, align 8, !tbaa !20
  %13 = icmp eq i32 %12, 0
  br i1 %13, label %14, label %16

14:                                               ; preds = %7
  %15 = load ptr, ptr %2, align 8, !tbaa !9
  call void @_Py_Dealloc(ptr noundef %15)
  br label %16

16:                                               ; preds = %6, %14, %7
  ret void
}

; Function Attrs: nounwind uwtable
define dso_local i32 @PyRun_InteractiveOneObject(ptr noundef %0, ptr noundef %1, ptr noundef %2) #0 {
  %4 = alloca ptr, align 8
  %5 = alloca ptr, align 8
  %6 = alloca ptr, align 8
  %7 = alloca i32, align 4
  store ptr %0, ptr %4, align 8, !tbaa !4
  store ptr %1, ptr %5, align 8, !tbaa !9
  store ptr %2, ptr %6, align 8, !tbaa !13
  call void @llvm.lifetime.start.p0(i64 4, ptr %7) #10
  %8 = load ptr, ptr %4, align 8, !tbaa !4
  %9 = load ptr, ptr %5, align 8, !tbaa !9
  %10 = load ptr, ptr %6, align 8, !tbaa !13
  %11 = call i32 @PyRun_InteractiveOneObjectEx(ptr noundef %8, ptr noundef %9, ptr noundef %10)
  store i32 %11, ptr %7, align 4, !tbaa !11
  %12 = load i32, ptr %7, align 4, !tbaa !11
  %13 = icmp eq i32 %12, -1
  br i1 %13, label %14, label %15

14:                                               ; preds = %3
  call void @PyErr_Print()
  call void @flush_io()
  br label %15

15:                                               ; preds = %14, %3
  %16 = load i32, ptr %7, align 4, !tbaa !11
  call void @llvm.lifetime.end.p0(i64 4, ptr %7) #10
  ret i32 %16
}

; Function Attrs: nounwind uwtable
define dso_local void @PyErr_Print() #0 {
  call void @PyErr_PrintEx(i32 noundef 1)
  ret void
}

; Function Attrs: nounwind uwtable
define dso_local i32 @PyRun_InteractiveOneFlags(ptr noundef %0, ptr noundef %1, ptr noundef %2) #0 {
  %4 = alloca i32, align 4
  %5 = alloca ptr, align 8
  %6 = alloca ptr, align 8
  %7 = alloca ptr, align 8
  %8 = alloca ptr, align 8
  %9 = alloca i32, align 4
  %10 = alloca i32, align 4
  store ptr %0, ptr %5, align 8, !tbaa !4
  store ptr %1, ptr %6, align 8, !tbaa !21
  store ptr %2, ptr %7, align 8, !tbaa !13
  call void @llvm.lifetime.start.p0(i64 8, ptr %8) #10
  call void @llvm.lifetime.start.p0(i64 4, ptr %9) #10
  %11 = load ptr, ptr %6, align 8, !tbaa !21
  %12 = call ptr @PyUnicode_DecodeFSDefault(ptr noundef %11)
  store ptr %12, ptr %8, align 8, !tbaa !9
  %13 = load ptr, ptr %8, align 8, !tbaa !9
  %14 = icmp eq ptr %13, null
  br i1 %14, label %15, label %16

15:                                               ; preds = %3
  call void @PyErr_Print()
  store i32 -1, ptr %4, align 4
  store i32 1, ptr %10, align 4
  br label %23

16:                                               ; preds = %3
  %17 = load ptr, ptr %5, align 8, !tbaa !4
  %18 = load ptr, ptr %8, align 8, !tbaa !9
  %19 = load ptr, ptr %7, align 8, !tbaa !13
  %20 = call i32 @PyRun_InteractiveOneObject(ptr noundef %17, ptr noundef %18, ptr noundef %19)
  store i32 %20, ptr %9, align 4, !tbaa !11
  %21 = load ptr, ptr %8, align 8, !tbaa !9
  call void @Py_DECREF(ptr noundef %21)
  %22 = load i32, ptr %9, align 4, !tbaa !11
  store i32 %22, ptr %4, align 4
  store i32 1, ptr %10, align 4
  br label %23

23:                                               ; preds = %16, %15
  call void @llvm.lifetime.end.p0(i64 4, ptr %9) #10
  call void @llvm.lifetime.end.p0(i64 8, ptr %8) #10
  %24 = load i32, ptr %4, align 4
  ret i32 %24
}

; Function Attrs: nounwind uwtable
define dso_local i32 @PyRun_InteractiveOne(ptr noundef %0, ptr noundef %1) #0 {
  %3 = alloca ptr, align 8
  %4 = alloca ptr, align 8
  store ptr %0, ptr %3, align 8, !tbaa !4
  store ptr %1, ptr %4, align 8, !tbaa !21
  %5 = load ptr, ptr %3, align 8, !tbaa !4
  %6 = load ptr, ptr %4, align 8, !tbaa !21
  %7 = call i32 @PyRun_InteractiveOneFlags(ptr noundef %5, ptr noundef %6, ptr noundef null)
  ret i32 %7
}