; Function Attrs: nounwind uwtable
define dso_local range(i32 -1, 12) i32 @PyRun_InteractiveOne(ptr noundef %0, ptr noundef %1) local_unnamed_addr #0 {
  %3 = tail call ptr @PyUnicode_DecodeFSDefault(ptr noundef %1) #8
  %4 = icmp eq ptr %3, null
  br i1 %4, label %5, label %8

5:                                                ; preds = %2
  %6 = tail call align 8 ptr @llvm.threadlocal.address.p0(ptr align 8 @_Py_tss_tstate)
  %7 = load ptr, ptr %6, align 8, !tbaa !4
  tail call fastcc void @_PyErr_PrintEx(ptr noundef %7, i32 noundef 1)
  br label %PyRun_InteractiveOneFlags.exit

8:                                                ; preds = %2
  %9 = tail call fastcc i32 @PyRun_InteractiveOneObjectEx(ptr noundef %0, ptr noundef nonnull %3, ptr noundef null)
  %10 = icmp eq i32 %9, -1
  br i1 %10, label %11, label %PyRun_InteractiveOneObject.exit.i

11:                                               ; preds = %8
  %12 = tail call align 8 ptr @llvm.threadlocal.address.p0(ptr align 8 @_Py_tss_tstate)
  %13 = load ptr, ptr %12, align 8, !tbaa !4
  tail call fastcc void @_PyErr_PrintEx(ptr noundef %13, i32 noundef 1)
  tail call fastcc void @flush_io()
  br label %PyRun_InteractiveOneObject.exit.i

PyRun_InteractiveOneObject.exit.i:                ; preds = %11, %8
  %14 = load i32, ptr %3, align 8, !tbaa !9
  %.not.i.i = icmp sgt i32 %14, -1
  br i1 %.not.i.i, label %15, label %PyRun_InteractiveOneFlags.exit

15:                                               ; preds = %PyRun_InteractiveOneObject.exit.i
  %16 = add nsw i32 %14, -1
  store i32 %16, ptr %3, align 8, !tbaa !9
  %17 = icmp eq i32 %16, 0
  br i1 %17, label %18, label %PyRun_InteractiveOneFlags.exit

18:                                               ; preds = %15
  tail call void @_Py_Dealloc(ptr noundef nonnull %3) #8
  br label %PyRun_InteractiveOneFlags.exit

PyRun_InteractiveOneFlags.exit:                   ; preds = %5, %PyRun_InteractiveOneObject.exit.i, %15, %18
  %.0.i = phi i32 [ -1, %5 ], [ %9, %PyRun_InteractiveOneObject.exit.i ], [ %9, %15 ], [ %9, %18 ]
  ret i32 %.0.i
}